-----BEGIN CERTIFICATE-----
MIIIlDCCBHygAwIBAgIKc1auP+D4xTiSBTANBgkqhkiG9w0BAQsFADBUMQswCQYD
VQQGEwJUSDEvMC0GA1UECgwmU2Nob29sIG9mIEluZm9ybWF0aW9uIFRlY2hub2xv
Z3kgS01VVFQxFDASBgNVBAMMC1NJVENlcnRBdXRoMB4XDTIyMDkwNTA3MTMwMVoX
DTIzMDkwNTA3MTMwMVowcjELMAkGA1UEBhMCVEgxLzAtBgNVBAoMJlNjaG9vbCBv
ZiBJbmZvcm1hdGlvbiBUZWNobm9sb2d5IEtNVVRUMRAwDgYDVQQLDAdTZXJ2ZXJz
MSAwHgYDVQQDDBdpcDIxdXMyLnNpdC5rbXV0dC5hYy50aDCCASIwDQYJKoZIhvcN
AQEBBQADggEPADCCAQoCggEBAPPVMKbXzyJBOht+EyPHYkYGP/PsAslaK9hvD8Rd
q2KCROWTTdKa2PS/ZjnUQisDG1R9DxaGvlycUcFupkn3ketpGUagqYyuGx+PuySS
jIkltVJEjqrEBmcCV+UjNLLxiwBJuZUopu1J3UgYEgTsOVnD62G0GJWSkhB+3jSY
nF6jitUeR3sFVSWe+0Ffqm6UEa1+qYMtT2WlHIFevB9UaxFMH/YfTyrixblPn9dY
2LB4ItT0HykA/keAi8S0cYLGDPVocoOiy4n+Um9D8proHo3oh9h+dBFEeFYftjBa
1YJEOevq4E+wL1b1Tgi1K+nH3v+aiQFOKChGYswzbhxmRz0CAwEAAaOCAkgwggJE
MAkGA1UdEwQCMAAwawYDVR0gBGQwYjAGBgQqAwMEMAYGBCoDAwUwBgYEKgMDBjBI
BgQqAwMHMEAwPgYIKwYBBQUHAgEWMmh0dHBzOi8vY2Fwa2kxMi5zaXQua211dHQu
YWMudGgvcGtpL3B1Yi9jcHMvbWVkaXVtMBEGCWCGSAGG+EIBAQQEAwIGQDALBgNV
HQ8EBAMCBPAwEwYDVR0lBAwwCgYIKwYBBQUHAwEwQwYJYIZIAYb4QgENBDYWNFdX
Vy1TZXJ2ZXIgb2YgU2Nob29sIG9mIEluZm9ybWF0aW9uIFRlY2hub2xvZ3kgS01V
VFQwHQYDVR0OBBYEFD/OwtsTTs7DZnxsjLvTCv3yIgH3MB8GA1UdIwQYMBaAFFhK
vLVWue1Fv+j4xL9PGLmhjiQaMEwGA1UdEQRFMEOCDDIwMi40NC45LjEwNoIMMjAy
LjQ0LjkuMTA3hwQKBDiAgR9waHVtaW4uY2h1bXBodUBtYWlsLmttdXR0LmFjLnRo
MCMGA1UdEgQcMBqBGG1mLWFkbWluQHNpdC5rbXV0dC5hYy50aDBVBggrBgEFBQcB
AQRJMEcwRQYIKwYBBQUHMAKGOWh0dHBzOi8vY2Fwa2kxMi5zaXQua211dHQuYWMu
dGgvcGtpL3B1Yi9jYWNlcnQvY2FjZXJ0LmNydDBGBgNVHR8EPzA9MDugOaA3hjVo
dHRwczovL2NhcGtpMTIuc2l0LmttdXR0LmFjLnRoL3BraS9wdWIvY3JsL2NhY3Js
LmNybDANBgkqhkiG9w0BAQsFAAOCBAEA2cNsuP671P2IL+7VXOYxG/7hY15tF80F
9VcoR6DuhsVxbKa84/bQKfoZxp8d8V5OvwaSjLsHTKEZpygw9YOJHqbygcBwTnrN
5hJDzEIN6/pm/V/dJt/zHpKgpDRDrEzZwTRG0rlxFsoDx8ZURs1TUI7w/ogHEYg4
cihtMfXph6pyLVNwmzevwzgJ7K+3zeCx4PXhW8yLdS5z8BF2Rttfdkft8HJ0l9bv
x6DmntgCA8jeTxhs5kPG0SLMxSeZYM6mK8LSbFcsyL/TCQNn9eAGwD54ASmc8lM7
x+RKwBOUdFBclMsnC/uL/Vpt6BCeEkhqa9eB6rpFPm8dA4w2kPnE0pDwzIF6JKyF
34Y6JNEQHn998KRWEla23IFz5DR87xlQP+fVKczDBIR8/lub4kZpmmh9corEwenW
kRBTK7YN3O/MXdQg07TuxwrH2FdSjSs1Uk+XycBbLZKjWD4uC7nuxoOR6umzdscS
cr3aXfnHlKh6q9prYK/htRTL6Utmic0zYAD3K1d4KVtFH3TKVkPKZX7REfYMB2Zn
ZF4LGaVWd/rPCWXB1v/kHUHT3CYXaDysauCbaZDVrHttUUaPacVvQkr+2x+jB39F
eNAIOlwnimTbe+RgQ9dvfXYFb5phz+GJ5YUAa6f43EVGOJcyosKiRVaD+SGnJN4w
+ZRY0MyZxdWw4E/aP/AdM02DyjUlpnjpCNd2uBDIdT7OIJUL41aDaC/yKvmO1o4l
8EDEznuGCRw5O6sdErBtwn+4wCFN+PAsTHaYV0IqUFqDT/p1qbppbSrxLx1KtqEl
Ndin18mgj9rS/0eSy93psAFqOpDbv2zjecD5oL0ER6hPQlWiPvba+1VSKX5UzHHa
J6FcWc5GEQ+hypLjahQdqky6zY4xPifGCJOlI4Q9o8HFmDU5CcxXKWsjAVeIy3tD
rnkuXDCYNDK9fcEQFSRE4g9G9YmgNNyU+bFrM40YgDFJvh6bk56FjzZs4XCrp0we
Nx0nH9jKPxgTUDvjtkRr34Cv9TKFBcGJ8yPkQVZbrPwKqUQfcfmyeuDcb7s4vafq
SRjO95cKmjSPyFFqEf9bNC53cY+ZBraTUs4owOASlkgyVty1dsOQstaYugnA4lMa
IFB+F5SZj5SMOG1FAlLcKldRVr8mMJbbt44HLuz77ttAvJendX16sniugKpPAKGj
e5AFQH6lqBYCJbMKHvQO8REEFj3lQ3Jb8RnXWpbe0FtZ+0662TttblFGT/OaXnjr
sDonqi3EIcrSUfkdCzxDOYy0QAJdY94N5kotkUsNZoMbbabfmoxqc07DX3bcN0z/
+He/8s8ydrPLc/hl6GehC83oBKaZ1P/Ph7zNCuAUZKOXn493b8gOyQ==
-----END CERTIFICATE-----
Certificate:
    Data:
        Version: 3 (0x2)
        Serial Number:
            73:56:ae:3f:e0:f8:c5:38:92:05
        Signature Algorithm: sha256WithRSAEncryption
        Issuer: CN=SITCertAuth,O=School of Information Technology KMUTT,C=TH
        Validity
            Not Before: Sep  5 07:13:01 2022 GMT
            Not After : Sep  5 07:13:01 2023 GMT
        Subject: CN=ip21us2.sit.kmutt.ac.th,OU=Servers,O=School of Information Technology KMUTT,C=TH
        Subject Public Key Info:
            Public Key Algorithm: rsaEncryption
            RSA Public Key: (2048 bit)
                Modulus (2048 bit):
                    00:f3:d5:30:a6:d7:cf:22:41:3a:1b:7e:13:23:c7:
                    62:46:06:3f:f3:ec:02:c9:5a:2b:d8:6f:0f:c4:5d:
                    ab:62:82:44:e5:93:4d:d2:9a:d8:f4:bf:66:39:d4:
                    42:2b:03:1b:54:7d:0f:16:86:be:5c:9c:51:c1:6e:
                    a6:49:f7:91:eb:69:19:46:a0:a9:8c:ae:1b:1f:8f:
                    bb:24:92:8c:89:25:b5:52:44:8e:aa:c4:06:67:02:
                    57:e5:23:34:b2:f1:8b:00:49:b9:95:28:a6:ed:49:
                    dd:48:18:12:04:ec:39:59:c3:eb:61:b4:18:95:92:
                    92:10:7e:de:34:98:9c:5e:a3:8a:d5:1e:47:7b:05:
                    55:25:9e:fb:41:5f:aa:6e:94:11:ad:7e:a9:83:2d:
                    4f:65:a5:1c:81:5e:bc:1f:54:6b:11:4c:1f:f6:1f:
                    4f:2a:e2:c5:b9:4f:9f:d7:58:d8:b0:78:22:d4:f4:
                    1f:29:00:fe:47:80:8b:c4:b4:71:82:c6:0c:f5:68:
                    72:83:a2:cb:89:fe:52:6f:43:f2:9a:e8:1e:8d:e8:
                    87:d8:7e:74:11:44:78:56:1f:b6:30:5a:d5:82:44:
                    39:eb:ea:e0:4f:b0:2f:56:f5:4e:08:b5:2b:e9:c7:
                    de:ff:9a:89:01:4e:28:28:46:62:cc:33:6e:1c:66:
                    47:3d
                Exponent: 65537 (0x10001)
        X509v3 extensions:
            X509v3 Basic Constraints: 
                CA:FALSE
            X509v3 Certificate Policies: 
                Policy: 1.2.3.3.4
                Policy: 1.2.3.3.5
                Policy: 1.2.3.3.6
                Policy: 1.2.3.3.7
                  CPS: https://capki12.sit.kmutt.ac.th/pki/pub/cps/medium

            Netscape Cert Type: 
                SSL Server
            X509v3 Key Usage: 
                Digital Signature, Non Repudiation, Key Encipherment, Data Encipherment
            X509v3 Extended Key Usage: 
                TLS Web Server Authentication
            Netscape Comment: 
                WWW-Server of School of Information Technology KMUTT
            X509v3 Subject Key Identifier: 
                3F:CE:C2:DB:13:4E:CE:C3:66:7C:6C:8C:BB:D3:0A:FD:F2:22:01:F7
            X509v3 Authority Key Identifier: 
                keyid:58:4A:BC:B5:56:B9:ED:45:BF:E8:F8:C4:BF:4F:18:B9:A1:8E:24:1A

            X509v3 Subject Alternative Name: 
                DNS:202.44.9.106, DNS:202.44.9.107, IP Address:10.4.56.128, email:phumin.chumphu@mail.kmutt.ac.th
            X509v3 Issuer Alternative Name: 
                email:mf-admin@sit.kmutt.ac.th
            Authority Information Access: 
                CA Issuers - URI:https://capki12.sit.kmutt.ac.th/pki/pub/cacert/cacert.crt

            X509v3 CRL Distribution Points: 
                URI:https://capki12.sit.kmutt.ac.th/pki/pub/crl/cacrl.crl

    Signature Algorithm: sha256WithRSAEncryption
        d9:c3:6c:b8:fe:bb:d4:fd:88:2f:ee:d5:5c:e6:31:1b:fe:e1:
        63:5e:6d:17:cd:05:f5:57:28:47:a0:ee:86:c5:71:6c:a6:bc:
        e3:f6:d0:29:fa:19:c6:9f:1d:f1:5e:4e:bf:06:92:8c:bb:07:
        4c:a1:19:a7:28:30:f5:83:89:1e:a6:f2:81:c0:70:4e:7a:cd:
        e6:12:43:cc:42:0d:eb:fa:66:fd:5f:dd:26:df:f3:1e:92:a0:
        a4:34:43:ac:4c:d9:c1:34:46:d2:b9:71:16:ca:03:c7:c6:54:
        46:cd:53:50:8e:f0:fe:88:07:11:88:38:72:28:6d:31:f5:e9:
        87:aa:72:2d:53:70:9b:37:af:c3:38:09:ec:af:b7:cd:e0:b1:
        e0:f5:e1:5b:cc:8b:75:2e:73:f0:11:76:46:db:5f:76:47:ed:
        f0:72:74:97:d6:ef:c7:a0:e6:9e:d8:02:03:c8:de:4f:18:6c:
        e6:43:c6:d1:22:cc:c5:27:99:60:ce:a6:2b:c2:d2:6c:57:2c:
        c8:bf:d3:09:03:67:f5:e0:06:c0:3e:78:01:29:9c:f2:53:3b:
        c7:e4:4a:c0:13:94:74:50:5c:94:cb:27:0b:fb:8b:fd:5a:6d:
        e8:10:9e:12:48:6a:6b:d7:81:ea:ba:45:3e:6f:1d:03:8c:36:
        90:f9:c4:d2:90:f0:cc:81:7a:24:ac:85:df:86:3a:24:d1:10:
        1e:7f:7d:f0:a4:56:12:56:b6:dc:81:73:e4:34:7c:ef:19:50:
        3f:e7:d5:29:cc:c3:04:84:7c:fe:5b:9b:e2:46:69:9a:68:7d:
        72:8a:c4:c1:e9:d6:91:10:53:2b:b6:0d:dc:ef:cc:5d:d4:20:
        d3:b4:ee:c7:0a:c7:d8:57:52:8d:2b:35:52:4f:97:c9:c0:5b:
        2d:92:a3:58:3e:2e:0b:b9:ee:c6:83:91:ea:e9:b3:76:c7:12:
        72:bd:da:5d:f9:c7:94:a8:7a:ab:da:6b:60:af:e1:b5:14:cb:
        e9:4b:66:89:cd:33:60:00:f7:2b:57:78:29:5b:45:1f:74:ca:
        56:43:ca:65:7e:d1:11:f6:0c:07:66:67:64:5e:0b:19:a5:56:
        77:fa:cf:09:65:c1:d6:ff:e4:1d:41:d3:dc:26:17:68:3c:ac:
        6a:e0:9b:69:90:d5:ac:7b:6d:51:46:8f:69:c5:6f:42:4a:fe:
        db:1f:a3:07:7f:45:78:d0:08:3a:5c:27:8a:64:db:7b:e4:60:
        43:d7:6f:7d:76:05:6f:9a:61:cf:e1:89:e5:85:00:6b:a7:f8:
        dc:45:46:38:97:32:a2:c2:a2:45:56:83:f9:21:a7:24:de:30:
        f9:94:58:d0:cc:99:c5:d5:b0:e0:4f:da:3f:f0:1d:33:4d:83:
        ca:35:25:a6:78:e9:08:d7:76:b8:10:c8:75:3e:ce:20:95:0b:
        e3:56:83:68:2f:f2:2a:f9:8e:d6:8e:25:f0:40:c4:ce:7b:86:
        09:1c:39:3b:ab:1d:12:b0:6d:c2:7f:b8:c0:21:4d:f8:f0:2c:
        4c:76:98:57:42:2a:50:5a:83:4f:fa:75:a9:ba:69:6d:2a:f1:
        2f:1d:4a:b6:a1:25:35:d8:a7:d7:c9:a0:8f:da:d2:ff:47:92:
        cb:dd:e9:b0:01:6a:3a:90:db:bf:6c:e3:79:c0:f9:a0:bd:04:
        47:a8:4f:42:55:a2:3e:f6:da:fb:55:52:29:7e:54:cc:71:da:
        27:a1:5c:59:ce:46:11:0f:a1:ca:92:e3:6a:14:1d:aa:4c:ba:
        cd:8e:31:3e:27:c6:08:93:a5:23:84:3d:a3:c1:c5:98:35:39:
        09:cc:57:29:6b:23:01:57:88:cb:7b:43:ae:79:2e:5c:30:98:
        34:32:bd:7d:c1:10:15:24:44:e2:0f:46:f5:89:a0:34:dc:94:
        f9:b1:6b:33:8d:18:80:31:49:be:1e:9b:93:9e:85:8f:36:6c:
        e1:70:ab:a7:4c:1e:37:1d:27:1f:d8:ca:3f:18:13:50:3b:e3:
        b6:44:6b:df:80:af:f5:32:85:05:c1:89:f3:23:e4:41:56:5b:
        ac:fc:0a:a9:44:1f:71:f9:b2:7a:e0:dc:6f:bb:38:bd:a7:ea:
        49:18:ce:f7:97:0a:9a:34:8f:c8:51:6a:11:ff:5b:34:2e:77:
        71:8f:99:06:b6:93:52:ce:28:c0:e0:12:96:48:32:56:dc:b5:
        76:c3:90:b2:d6:98:ba:09:c0:e2:53:1a:20:50:7e:17:94:99:
        8f:94:8c:38:6d:45:02:52:dc:2a:57:51:56:bf:26:30:96:db:
        b7:8e:07:2e:ec:fb:ee:db:40:bc:97:a7:75:7d:7a:b2:78:ae:
        80:aa:4f:00:a1:a3:7b:90:05:40:7e:a5:a8:16:02:25:b3:0a:
        1e:f4:0e:f1:11:04:16:3d:e5:43:72:5b:f1:19:d7:5a:96:de:
        d0:5b:59:fb:4e:ba:d9:3b:6d:6e:51:46:4f:f3:9a:5e:78:eb:
        b0:3a:27:aa:2d:c4:21:ca:d2:51:f9:1d:0b:3c:43:39:8c:b4:
        40:02:5d:63:de:0d:e6:4a:2d:91:4b:0d:66:83:1b:6d:a6:df:
        9a:8c:6a:73:4e:c3:5f:76:dc:37:4c:ff:f8:77:bf:f2:cf:32:
        76:b3:cb:73:f8:65:e8:67:a1:0b:cd:e8:04:a6:99:d4:ff:cf:
        87:bc:cd:0a:e0:14:64:a3:97:9f:8f:77:6f:c8:0e:c9